target datalayout = "e-m:e-p270:32:32-p271:32:32-p272:64:64-i64:64-i128:128-f80:128-n8:16:32:64-S128"
target triple = "x86_64-pc-linux-gnu"

%struct.pmix_pointer_array_t = type { %struct.pmix_object_t, i32, i32, i32, i32, i32, ptr, ptr }
%struct.pmix_object_t = type { %union.pthread_mutex_t, ptr, i32, %struct.pmix_tma }
%union.pthread_mutex_t = type { %struct.__pthread_mutex_s }
%struct.__pthread_mutex_s = type { i32, i32, i32, i32, i32, i16, i16, %struct.__pthread_internal_list }
%struct.__pthread_internal_list = type { ptr, ptr }
%struct.pmix_tma = type { ptr, ptr, ptr, ptr, ptr, ptr, ptr, ptr }

; Function Attrs: inlinehint nounwind uwtable
define internal ptr @pmix_tma_realloc(ptr noundef %0, ptr noundef %1, i64 noundef %2) #2 {
  %4 = alloca ptr, align 8
  %5 = alloca ptr, align 8
  %6 = alloca ptr, align 8
  %7 = alloca i64, align 8
  store ptr %0, ptr %5, align 8, !tbaa !21
  store ptr %1, ptr %6, align 8, !tbaa !30
  store i64 %2, ptr %7, align 8, !tbaa !24
  %8 = load ptr, ptr %5, align 8, !tbaa !21
  %9 = icmp ne ptr null, %8
  br i1 %9, label %10, label %18

10:                                               ; preds = %3
  %11 = load ptr, ptr %5, align 8, !tbaa !21
  %12 = getelementptr inbounds nuw %struct.pmix_tma, ptr %11, i32 0, i32 2
  %13 = load ptr, ptr %12, align 8, !tbaa !38
  %14 = load ptr, ptr %5, align 8, !tbaa !21
  %15 = load ptr, ptr %6, align 8, !tbaa !30
  %16 = load i64, ptr %7, align 8, !tbaa !24
  %17 = call ptr %13(ptr noundef %14, ptr noundef %15, i64 noundef %16)
  store ptr %17, ptr %4, align 8
  br label %22

18:                                               ; preds = %3
  %19 = load ptr, ptr %6, align 8, !tbaa !30
  %20 = load i64, ptr %7, align 8, !tbaa !24
  %21 = call ptr @realloc(ptr noundef %19, i64 noundef %20) #9
  store ptr %21, ptr %4, align 8
  br label %22

22:                                               ; preds = %18, %10
  %23 = load ptr, ptr %4, align 8
  ret ptr %23
}

; Function Attrs: inlinehint nounwind uwtable
define internal ptr @pmix_obj_get_tma(ptr noundef %0) #2 {
  %2 = alloca ptr, align 8
  %3 = alloca ptr, align 8
  store ptr %0, ptr %3, align 8, !tbaa !26
  %4 = load ptr, ptr %3, align 8, !tbaa !26
  %5 = getelementptr inbounds nuw %struct.pmix_object_t, ptr %4, i32 0, i32 3
  %6 = getelementptr inbounds nuw %struct.pmix_tma, ptr %5, i32 0, i32 0
  %7 = load ptr, ptr %6, align 8, !tbaa !28
  %8 = icmp ne ptr %7, null
  br i1 %8, label %9, label %12

9:                                                ; preds = %1
  %10 = load ptr, ptr %3, align 8, !tbaa !26
  %11 = getelementptr inbounds nuw %struct.pmix_object_t, ptr %10, i32 0, i32 3
  store ptr %11, ptr %2, align 8
  br label %13

12:                                               ; preds = %1
  store ptr null, ptr %2, align 8
  br label %13

13:                                               ; preds = %12, %9
  %14 = load ptr, ptr %2, align 8
  ret ptr %14
}

; Function Attrs: nounwind uwtable
define internal zeroext i1 @grow_table(ptr noundef %0, i32 noundef %1) #0 {
  %3 = alloca i1, align 1
  %4 = alloca ptr, align 8
  %5 = alloca i32, align 4
  %6 = alloca ptr, align 8
  %7 = alloca i32, align 4
  %8 = alloca i32, align 4
  %9 = alloca i32, align 4
  %10 = alloca ptr, align 8
  %11 = alloca i32, align 4
  store ptr %0, ptr %4, align 8, !tbaa !3
  store i32 %1, ptr %5, align 4, !tbaa !23
  call void @llvm.lifetime.start.p0(i64 8, ptr %6) #7
  %12 = load ptr, ptr %4, align 8, !tbaa !3
  %13 = getelementptr inbounds nuw %struct.pmix_pointer_array_t, ptr %12, i32 0, i32 0
  %14 = call ptr @pmix_obj_get_tma(ptr noundef %13)
  store ptr %14, ptr %6, align 8, !tbaa !21
  call void @llvm.lifetime.start.p0(i64 4, ptr %7) #7
  call void @llvm.lifetime.start.p0(i64 4, ptr %8) #7
  call void @llvm.lifetime.start.p0(i64 4, ptr %9) #7
  call void @llvm.lifetime.start.p0(i64 8, ptr %10) #7
  %15 = load ptr, ptr %4, align 8, !tbaa !3
  %16 = getelementptr inbounds nuw %struct.pmix_pointer_array_t, ptr %15, i32 0, i32 5
  %17 = load i32, ptr %16, align 8, !tbaa !18
  %18 = load i32, ptr %5, align 4, !tbaa !23
  %19 = add nsw i32 %18, 1
  %20 = load ptr, ptr %4, align 8, !tbaa !3
  %21 = getelementptr inbounds nuw %struct.pmix_pointer_array_t, ptr %20, i32 0, i32 5
  %22 = load i32, ptr %21, align 8, !tbaa !18
  %23 = add nsw i32 %19, %22
  %24 = sub nsw i32 %23, 1
  %25 = load ptr, ptr %4, align 8, !tbaa !3
  %26 = getelementptr inbounds nuw %struct.pmix_pointer_array_t, ptr %25, i32 0, i32 5
  %27 = load i32, ptr %26, align 8, !tbaa !18
  %28 = sdiv i32 %24, %27
  %29 = mul nsw i32 %17, %28
  store i32 %29, ptr %8, align 4, !tbaa !23
  %30 = load i32, ptr %8, align 4, !tbaa !23
  %31 = load ptr, ptr %4, align 8, !tbaa !3
  %32 = getelementptr inbounds nuw %struct.pmix_pointer_array_t, ptr %31, i32 0, i32 4
  %33 = load i32, ptr %32, align 4, !tbaa !17
  %34 = icmp sge i32 %30, %33
  br i1 %34, label %35, label %46

35:                                               ; preds = %2
  %36 = load ptr, ptr %4, align 8, !tbaa !3
  %37 = getelementptr inbounds nuw %struct.pmix_pointer_array_t, ptr %36, i32 0, i32 4
  %38 = load i32, ptr %37, align 4, !tbaa !17
  store i32 %38, ptr %8, align 4, !tbaa !23
  %39 = load i32, ptr %5, align 4, !tbaa !23
  %40 = load ptr, ptr %4, align 8, !tbaa !3
  %41 = getelementptr inbounds nuw %struct.pmix_pointer_array_t, ptr %40, i32 0, i32 4
  %42 = load i32, ptr %41, align 4, !tbaa !17
  %43 = icmp sge i32 %39, %42
  br i1 %43, label %44, label %45

44:                                               ; preds = %35
  store i1 false, ptr %3, align 1
  store i32 1, ptr %11, align 4
  br label %148

45:                                               ; preds = %35
  br label %46

46:                                               ; preds = %45, %2
  %47 = load ptr, ptr %6, align 8, !tbaa !21
  %48 = load ptr, ptr %4, align 8, !tbaa !3
  %49 = getelementptr inbounds nuw %struct.pmix_pointer_array_t, ptr %48, i32 0, i32 7
  %50 = load ptr, ptr %49, align 8, !tbaa !20
  %51 = load i32, ptr %8, align 4, !tbaa !23
  %52 = sext i32 %51 to i64
  %53 = mul i64 %52, 8
  %54 = call ptr @pmix_tma_realloc(ptr noundef %47, ptr noundef %50, i64 noundef %53)
  store ptr %54, ptr %10, align 8, !tbaa !30
  %55 = load ptr, ptr %10, align 8, !tbaa !30
  %56 = icmp eq ptr null, %55
  br i1 %56, label %57, label %58

57:                                               ; preds = %46
  store i1 false, ptr %3, align 1
  store i32 1, ptr %11, align 4
  br label %148

58:                                               ; preds = %46
  %59 = load i32, ptr %8, align 4, !tbaa !23
  %60 = load ptr, ptr %4, align 8, !tbaa !3
  %61 = getelementptr inbounds nuw %struct.pmix_pointer_array_t, ptr %60, i32 0, i32 3
  %62 = load i32, ptr %61, align 8, !tbaa !16
  %63 = sub nsw i32 %59, %62
  %64 = load ptr, ptr %4, align 8, !tbaa !3
  %65 = getelementptr inbounds nuw %struct.pmix_pointer_array_t, ptr %64, i32 0, i32 2
  %66 = load i32, ptr %65, align 4, !tbaa !15
  %67 = add nsw i32 %66, %63
  store i32 %67, ptr %65, align 4, !tbaa !15
  %68 = load ptr, ptr %10, align 8, !tbaa !30
  %69 = load ptr, ptr %4, align 8, !tbaa !3
  %70 = getelementptr inbounds nuw %struct.pmix_pointer_array_t, ptr %69, i32 0, i32 7
  store ptr %68, ptr %70, align 8, !tbaa !20
  %71 = load ptr, ptr %4, align 8, !tbaa !3
  %72 = getelementptr inbounds nuw %struct.pmix_pointer_array_t, ptr %71, i32 0, i32 3
  %73 = load i32, ptr %72, align 8, !tbaa !16
  store i32 %73, ptr %7, align 4, !tbaa !23
  br label %74

74:                                               ; preds = %85, %58
  %75 = load i32, ptr %7, align 4, !tbaa !23
  %76 = load i32, ptr %8, align 4, !tbaa !23
  %77 = icmp slt i32 %75, %76
  br i1 %77, label %78, label %88

78:                                               ; preds = %74
  %79 = load ptr, ptr %4, align 8, !tbaa !3
  %80 = getelementptr inbounds nuw %struct.pmix_pointer_array_t, ptr %79, i32 0, i32 7
  %81 = load ptr, ptr %80, align 8, !tbaa !20
  %82 = load i32, ptr %7, align 4, !tbaa !23
  %83 = sext i32 %82 to i64
  %84 = getelementptr inbounds ptr, ptr %81, i64 %83
  store ptr null, ptr %84, align 8, !tbaa !30
  br label %85

85:                                               ; preds = %78
  %86 = load i32, ptr %7, align 4, !tbaa !23
  %87 = add nsw i32 %86, 1
  store i32 %87, ptr %7, align 4, !tbaa !23
  br label %74, !llvm.loop !34

88:                                               ; preds = %74
  %89 = load i32, ptr %8, align 4, !tbaa !23
  %90 = sext i32 %89 to i64
  %91 = add i64 %90, 64
  %92 = sub i64 %91, 1
  %93 = udiv i64 %92, 64
  %94 = trunc i64 %93 to i32
  store i32 %94, ptr %9, align 4, !tbaa !23
  %95 = load ptr, ptr %4, align 8, !tbaa !3
  %96 = getelementptr inbounds nuw %struct.pmix_pointer_array_t, ptr %95, i32 0, i32 3
  %97 = load i32, ptr %96, align 8, !tbaa !16
  %98 = sext i32 %97 to i64
  %99 = add i64 %98, 64
  %100 = sub i64 %99, 1
  %101 = udiv i64 %100, 64
  %102 = trunc i64 %101 to i32
  %103 = load i32, ptr %9, align 4, !tbaa !23
  %104 = icmp ne i32 %102, %103
  br i1 %104, label %105, label %144

105:                                              ; preds = %88
  %106 = load ptr, ptr %6, align 8, !tbaa !21
  %107 = load ptr, ptr %4, align 8, !tbaa !3
  %108 = getelementptr inbounds nuw %struct.pmix_pointer_array_t, ptr %107, i32 0, i32 6
  %109 = load ptr, ptr %108, align 8, !tbaa !19
  %110 = load i32, ptr %9, align 4, !tbaa !23
  %111 = sext i32 %110 to i64
  %112 = mul i64 %111, 8
  %113 = call ptr @pmix_tma_realloc(ptr noundef %106, ptr noundef %109, i64 noundef %112)
  store ptr %113, ptr %10, align 8, !tbaa !30
  %114 = load ptr, ptr %10, align 8, !tbaa !30
  %115 = icmp eq ptr null, %114
  br i1 %115, label %116, label %117

116:                                              ; preds = %105
  store i1 false, ptr %3, align 1
  store i32 1, ptr %11, align 4
  br label %148

117:                                              ; preds = %105
  %118 = load ptr, ptr %10, align 8, !tbaa !30
  %119 = load ptr, ptr %4, align 8, !tbaa !3
  %120 = getelementptr inbounds nuw %struct.pmix_pointer_array_t, ptr %119, i32 0, i32 6
  store ptr %118, ptr %120, align 8, !tbaa !19
  %121 = load ptr, ptr %4, align 8, !tbaa !3
  %122 = getelementptr inbounds nuw %struct.pmix_pointer_array_t, ptr %121, i32 0, i32 3
  %123 = load i32, ptr %122, align 8, !tbaa !16
  %124 = sext i32 %123 to i64
  %125 = add i64 %124, 64
  %126 = sub i64 %125, 1
  %127 = udiv i64 %126, 64
  %128 = trunc i64 %127 to i32
  store i32 %128, ptr %7, align 4, !tbaa !23
  br label %129

129:                                              ; preds = %140, %117
  %130 = load i32, ptr %7, align 4, !tbaa !23
  %131 = load i32, ptr %9, align 4, !tbaa !23
  %132 = icmp slt i32 %130, %131
  br i1 %132, label %133, label %143

133:                                              ; preds = %129
  %134 = load ptr, ptr %4, align 8, !tbaa !3
  %135 = getelementptr inbounds nuw %struct.pmix_pointer_array_t, ptr %134, i32 0, i32 6
  %136 = load ptr, ptr %135, align 8, !tbaa !19
  %137 = load i32, ptr %7, align 4, !tbaa !23
  %138 = sext i32 %137 to i64
  %139 = getelementptr inbounds i64, ptr %136, i64 %138
  store i64 0, ptr %139, align 8, !tbaa !24
  br label %140

140:                                              ; preds = %133
  %141 = load i32, ptr %7, align 4, !tbaa !23
  %142 = add nsw i32 %141, 1
  store i32 %142, ptr %7, align 4, !tbaa !23
  br label %129, !llvm.loop !35

143:                                              ; preds = %129
  br label %144

144:                                              ; preds = %143, %88
  %145 = load i32, ptr %8, align 4, !tbaa !23
  %146 = load ptr, ptr %4, align 8, !tbaa !3
  %147 = getelementptr inbounds nuw %struct.pmix_pointer_array_t, ptr %146, i32 0, i32 3
  store i32 %145, ptr %147, align 8, !tbaa !16
  store i1 true, ptr %3, align 1
  store i32 1, ptr %11, align 4
  br label %148

148:                                              ; preds = %144, %116, %57, %44
  call void @llvm.lifetime.end.p0(i64 8, ptr %10) #7
  call void @llvm.lifetime.end.p0(i64 4, ptr %9) #7
  call void @llvm.lifetime.end.p0(i64 4, ptr %8) #7
  call void @llvm.lifetime.end.p0(i64 4, ptr %7) #7
  call void @llvm.lifetime.end.p0(i64 8, ptr %6) #7
  %149 = load i1, ptr %3, align 1
  ret i1 %149
}