; Function Attrs: nounwind uwtable
define internal fastcc noundef zeroext i1 @grow_table(ptr noundef %0, i32 noundef %1) unnamed_addr #1 {
  %3 = getelementptr inbounds nuw i8, ptr %0, i64 56
  %4 = load ptr, ptr %3, align 8, !tbaa !17
  %.not.i = icmp eq ptr %4, null
  %5 = getelementptr inbounds nuw i8, ptr %0, i64 136
  %6 = load i32, ptr %5, align 8, !tbaa !16
  %.fr49 = freeze i32 %6
  %7 = add i32 %.fr49, %1
  %8 = srem i32 %7, %.fr49
  %9 = sub nsw i32 %7, %8
  %10 = getelementptr inbounds nuw i8, ptr %0, i64 132
  %11 = load i32, ptr %10, align 4, !tbaa !15
  %.not = icmp slt i32 %9, %11
  br i1 %.not, label %13, label %12

12:                                               ; preds = %2
  %.not50 = icmp slt i32 %1, %11
  br i1 %.not50, label %13, label %66

13:                                               ; preds = %12, %2
  %.042 = phi i32 [ %11, %12 ], [ %9, %2 ]
  %14 = getelementptr inbounds nuw i8, ptr %0, i64 152
  %15 = load ptr, ptr %14, align 8, !tbaa !20
  %16 = sext i32 %.042 to i64
  %17 = shl nsw i64 %16, 3
  br i1 %.not.i, label %22, label %18

18:                                               ; preds = %13
  %19 = getelementptr inbounds nuw i8, ptr %0, i64 72
  %20 = load ptr, ptr %19, align 8, !tbaa !27
  %21 = tail call ptr %20(ptr noundef nonnull %3, ptr noundef %15, i64 noundef range(i64 -17179869184, 17179869177) %17) #6
  br label %pmix_tma_realloc.exit

22:                                               ; preds = %13
  %23 = tail call ptr @realloc(ptr noundef %15, i64 noundef range(i64 -17179869184, 17179869177) %17) #8
  br label %pmix_tma_realloc.exit

pmix_tma_realloc.exit:                            ; preds = %18, %22
  %.0.i = phi ptr [ %21, %18 ], [ %23, %22 ]
  %24 = icmp eq ptr %.0.i, null
  br i1 %24, label %66, label %25

25:                                               ; preds = %pmix_tma_realloc.exit
  %26 = getelementptr inbounds nuw i8, ptr %0, i64 128
  %27 = load i32, ptr %26, align 8, !tbaa !14
  %28 = sub i32 %.042, %27
  %29 = getelementptr inbounds nuw i8, ptr %0, i64 124
  %30 = load i32, ptr %29, align 4, !tbaa !13
  %31 = add nsw i32 %28, %30
  store i32 %31, ptr %29, align 4, !tbaa !13
  store ptr %.0.i, ptr %14, align 8, !tbaa !20
  %32 = icmp slt i32 %27, %.042
  %33 = sext i32 %27 to i64
  br i1 %32, label %.lr.ph, label %._crit_edge

.lr.ph:                                           ; preds = %25, %.lr.ph
  %indvars.iv = phi i64 [ %indvars.iv.next, %.lr.ph ], [ %33, %25 ]
  %34 = load ptr, ptr %14, align 8, !tbaa !20
  %35 = getelementptr inbounds ptr, ptr %34, i64 %indvars.iv
  store ptr null, ptr %35, align 8, !tbaa !22
  %indvars.iv.next = add nsw i64 %indvars.iv, 1
  %exitcond.not = icmp eq i64 %indvars.iv.next, %16
  br i1 %exitcond.not, label %._crit_edge, label %.lr.ph, !llvm.loop !28

._crit_edge:                                      ; preds = %.lr.ph, %25
  %36 = add nsw i64 %16, 63
  %37 = lshr i64 %36, 6
  %38 = trunc i64 %37 to i32
  %39 = add nsw i64 %33, 63
  %40 = lshr i64 %39, 6
  %41 = trunc i64 %40 to i32
  %.not51 = icmp eq i32 %41, %38
  br i1 %.not51, label %.loopexit, label %42

42:                                               ; preds = %._crit_edge
  %43 = getelementptr inbounds nuw i8, ptr %0, i64 144
  %44 = load ptr, ptr %43, align 8, !tbaa !18
  %sext = shl i64 %37, 32
  %45 = ashr exact i64 %sext, 29
  br i1 %.not.i, label %50, label %46

46:                                               ; preds = %42
  %47 = getelementptr inbounds nuw i8, ptr %0, i64 72
  %48 = load ptr, ptr %47, align 8, !tbaa !27
  %49 = tail call ptr %48(ptr noundef nonnull %3, ptr noundef %44, i64 noundef range(i64 -17179869184, 17179869177) %45) #6
  br label %pmix_tma_realloc.exit55

50:                                               ; preds = %42
  %51 = tail call ptr @realloc(ptr noundef %44, i64 noundef range(i64 -17179869184, 17179869177) %45) #8
  br label %pmix_tma_realloc.exit55

pmix_tma_realloc.exit55:                          ; preds = %46, %50
  %.0.i54 = phi ptr [ %49, %46 ], [ %51, %50 ]
  %52 = icmp eq ptr %.0.i54, null
  br i1 %52, label %66, label %53

53:                                               ; preds = %pmix_tma_realloc.exit55
  store ptr %.0.i54, ptr %43, align 8, !tbaa !18
  %54 = load i32, ptr %26, align 8, !tbaa !14
  %55 = sext i32 %54 to i64
  %56 = add nsw i64 %55, 63
  %57 = lshr i64 %56, 6
  %58 = trunc i64 %57 to i32
  %59 = icmp slt i32 %58, %38
  br i1 %59, label %.lr.ph59.preheader, label %.loopexit

.lr.ph59.preheader:                               ; preds = %53
  %sext64 = shl i64 %57, 32
  %60 = ashr exact i64 %sext64, 29
  %scevgep = getelementptr i8, ptr %.0.i54, i64 %60
  %61 = xor i64 %57, -1
  %62 = add nsw i64 %37, %61
  %63 = shl nsw i64 %62, 3
  %64 = and i64 %63, 34359738360
  %65 = add nuw nsw i64 %64, 8
  tail call void @llvm.memset.p0.i64(ptr noundef nonnull align 8 dereferenceable(1) %scevgep, i8 0, i64 %65, i1 false), !tbaa !23
  br label %.loopexit

.loopexit:                                        ; preds = %.lr.ph59.preheader, %53, %._crit_edge
  store i32 %.042, ptr %26, align 8, !tbaa !14
  br label %66

66:                                               ; preds = %pmix_tma_realloc.exit55, %pmix_tma_realloc.exit, %12, %.loopexit
  %.0 = phi i1 [ true, %.loopexit ], [ false, %12 ], [ false, %pmix_tma_realloc.exit ], [ false, %pmix_tma_realloc.exit55 ]
  ret i1 %.0
}